target datalayout = "e-m:e-p270:32:32-p271:32:32-p272:64:64-i64:64-i128:128-f80:128-n8:16:32:64-S128"
target triple = "x86_64-pc-linux-gnu"

%struct.ident_t = type { i32, i32, i32, i32, ptr }
%"struct.faiss::Level1Quantizer" = type { ptr, i64, i8, i8, [6 x i8], %"struct.faiss::ClusteringParameters", ptr }
%"struct.faiss::ClusteringParameters" = type <{ i32, i32, i8, i8, i8, i8, i8, [3 x i8], i32, i32, i32, [4 x i8], i64, i8, i8, [6 x i8] }>
%"struct.faiss::Index" = type <{ ptr, i32, [4 x i8], i64, i8, i8, [2 x i8], i32, float, [4 x i8] }>
%"struct.std::_Vector_base.14" = type { %"struct.std::_Vector_base<float, std::allocator<float>>::_Vector_impl" }
%"struct.std::_Vector_base<float, std::allocator<float>>::_Vector_impl" = type { %"struct.std::_Vector_base<float, std::allocator<float>>::_Vector_impl_data" }
%"struct.std::_Vector_base<float, std::allocator<float>>::_Vector_impl_data" = type { ptr, ptr, ptr }

@1 = private unnamed_addr constant %struct.ident_t { i32 0, i32 514, i32 0, i32 22, ptr @0 }, align 8

; Function Attrs: mustprogress nounwind uwtable
define linkonce_odr noundef ptr @_ZNKSt6vectorIfSaIfEE11_M_data_ptrIfEEPT_S4_(ptr noundef nonnull align 8 dereferenceable(24) %0, ptr noundef %1) #0 comdat align 2 {
  %3 = alloca ptr, align 8
  %4 = alloca ptr, align 8
  store ptr %0, ptr %3, align 8, !tbaa !182
  store ptr %1, ptr %4, align 8, !tbaa !11
  %5 = load ptr, ptr %4, align 8, !tbaa !11
  ret ptr %5
}

; Function Attrs: mustprogress nounwind uwtable
define linkonce_odr noundef ptr @_ZNSt6vectorIfSaIfEE4dataEv(ptr noundef nonnull align 8 dereferenceable(24) %0) #0 comdat align 2 {
  %2 = alloca ptr, align 8
  store ptr %0, ptr %2, align 8, !tbaa !182
  %3 = load ptr, ptr %2, align 8
  %4 = getelementptr inbounds nuw %"struct.std::_Vector_base.14", ptr %3, i32 0, i32 0
  %5 = getelementptr inbounds nuw %"struct.std::_Vector_base<float, std::allocator<float>>::_Vector_impl_data", ptr %4, i32 0, i32 0
  %6 = load ptr, ptr %5, align 8, !tbaa !193
  %7 = call noundef ptr @_ZNKSt6vectorIfSaIfEE11_M_data_ptrIfEEPT_S4_(ptr noundef nonnull align 8 dereferenceable(24) %3, ptr noundef %6) #18
  ret ptr %7
}

; Function Attrs: noinline norecurse nounwind uwtable
define internal void @_ZNK5faiss33IndexIVFAdditiveQuantizerFastScan14encode_vectorsElPKfPKlPhb.omp_outlined.16(ptr noalias noundef %0, ptr noalias noundef %1, ptr noundef nonnull align 8 dereferenceable(8) %2, ptr noundef nonnull align 8 dereferenceable(24) %3, ptr noundef %4, ptr noundef nonnull align 8 dereferenceable(8) %5) #22 personality ptr @__gxx_personality_v0 {
  %7 = alloca ptr, align 8
  %8 = alloca ptr, align 8
  %9 = alloca ptr, align 8
  %10 = alloca ptr, align 8
  %11 = alloca ptr, align 8
  %12 = alloca ptr, align 8
  %13 = alloca i64, align 8
  %14 = alloca i64, align 8
  %15 = alloca i64, align 8
  %16 = alloca i64, align 8
  %17 = alloca i64, align 8
  %18 = alloca i64, align 8
  %19 = alloca i64, align 8
  %20 = alloca i32, align 4
  %21 = alloca i64, align 8
  %22 = alloca ptr, align 8
  store ptr %0, ptr %7, align 8, !tbaa !228
  store ptr %1, ptr %8, align 8, !tbaa !228
  store ptr %2, ptr %9, align 8, !tbaa !13
  store ptr %3, ptr %10, align 8, !tbaa !182
  store ptr %4, ptr %11, align 8, !tbaa !4
  store ptr %5, ptr %12, align 8, !tbaa !137
  %23 = load ptr, ptr %9, align 8, !tbaa !13
  %24 = load ptr, ptr %10, align 8, !tbaa !182
  %25 = load ptr, ptr %11, align 8, !tbaa !4
  %26 = load ptr, ptr %12, align 8, !tbaa !137
  call void @llvm.lifetime.start.p0(i64 8, ptr %13) #18
  call void @llvm.lifetime.start.p0(i64 8, ptr %14) #18
  %27 = load i64, ptr %23, align 8, !tbaa !9
  store i64 %27, ptr %14, align 8, !tbaa !9
  call void @llvm.lifetime.start.p0(i64 8, ptr %15) #18
  %28 = load i64, ptr %14, align 8, !tbaa !9
  %29 = sub nsw i64 %28, 0
  %30 = sdiv i64 %29, 1
  %31 = sub nsw i64 %30, 1
  store i64 %31, ptr %15, align 8, !tbaa !9
  call void @llvm.lifetime.start.p0(i64 8, ptr %16) #18
  store i64 0, ptr %16, align 8, !tbaa !9
  call void @llvm.lifetime.end.p0(i64 8, ptr %16) #18
  %32 = load i64, ptr %14, align 8, !tbaa !9
  %33 = icmp slt i64 0, %32
  br i1 %33, label %34, label %84

34:                                               ; preds = %6
  call void @llvm.lifetime.start.p0(i64 8, ptr %17) #18
  store i64 0, ptr %17, align 8, !tbaa !9
  call void @llvm.lifetime.start.p0(i64 8, ptr %18) #18
  %35 = load i64, ptr %15, align 8, !tbaa !9
  store i64 %35, ptr %18, align 8, !tbaa !9
  call void @llvm.lifetime.start.p0(i64 8, ptr %19) #18
  store i64 1, ptr %19, align 8, !tbaa !9
  call void @llvm.lifetime.start.p0(i64 4, ptr %20) #18
  store i32 0, ptr %20, align 4, !tbaa !17
  call void @llvm.lifetime.start.p0(i64 8, ptr %21) #18
  %36 = load ptr, ptr %7, align 8
  %37 = load i32, ptr %36, align 4, !tbaa !17
  call void @__kmpc_for_static_init_8(ptr @1, i32 %37, i32 34, ptr %20, ptr %17, ptr %18, ptr %19, i64 1, i64 1)
  %38 = load i64, ptr %18, align 8, !tbaa !9
  %39 = load i64, ptr %15, align 8, !tbaa !9
  %40 = icmp sgt i64 %38, %39
  br i1 %40, label %41, label %43

41:                                               ; preds = %34
  %42 = load i64, ptr %15, align 8, !tbaa !9
  br label %45

43:                                               ; preds = %34
  %44 = load i64, ptr %18, align 8, !tbaa !9
  br label %45

45:                                               ; preds = %43, %41
  %46 = phi i64 [ %42, %41 ], [ %44, %43 ]
  store i64 %46, ptr %18, align 8, !tbaa !9
  %47 = load i64, ptr %17, align 8, !tbaa !9
  store i64 %47, ptr %13, align 8, !tbaa !9
  br label %48

48:                                               ; preds = %77, %45
  %49 = load i64, ptr %13, align 8, !tbaa !9
  %50 = load i64, ptr %18, align 8, !tbaa !9
  %51 = icmp sle i64 %49, %50
  br i1 %51, label %53, label %52

52:                                               ; preds = %48
  br label %80

53:                                               ; preds = %48
  %54 = load i64, ptr %13, align 8, !tbaa !9
  %55 = mul nsw i64 %54, 1
  %56 = add nsw i64 0, %55
  store i64 %56, ptr %21, align 8, !tbaa !9
  call void @llvm.lifetime.start.p0(i64 8, ptr %22) #18
  %57 = call noundef ptr @_ZNSt6vectorIfSaIfEE4dataEv(ptr noundef nonnull align 8 dereferenceable(24) %24) #18
  %58 = load i64, ptr %21, align 8, !tbaa !9
  %59 = getelementptr inbounds nuw %"struct.faiss::Index", ptr %25, i32 0, i32 1
  %60 = load i32, ptr %59, align 8, !tbaa !58
  %61 = sext i32 %60 to i64
  %62 = mul nsw i64 %58, %61
  %63 = getelementptr inbounds float, ptr %57, i64 %62
  store ptr %63, ptr %22, align 8, !tbaa !11
  %64 = getelementptr inbounds i8, ptr %25, i64 48
  %65 = getelementptr inbounds nuw %"struct.faiss::Level1Quantizer", ptr %64, i32 0, i32 0
  %66 = load ptr, ptr %65, align 8, !tbaa !92
  %67 = load ptr, ptr %26, align 8, !tbaa !13
  %68 = load i64, ptr %21, align 8, !tbaa !9
  %69 = getelementptr inbounds i64, ptr %67, i64 %68
  %70 = load i64, ptr %69, align 8, !tbaa !9
  %71 = load ptr, ptr %22, align 8, !tbaa !11
  %72 = load ptr, ptr %66, align 8, !tbaa !60
  %73 = getelementptr inbounds ptr, ptr %72, i64 10
  %74 = load ptr, ptr %73, align 8
  invoke void %74(ptr noundef nonnull align 8 dereferenceable(36) %66, i64 noundef %70, ptr noundef %71)
          to label %75 unwind label %85

75:                                               ; preds = %53
  call void @llvm.lifetime.end.p0(i64 8, ptr %22) #18
  br label %76

76:                                               ; preds = %75
  br label %77

77:                                               ; preds = %76
  %78 = load i64, ptr %13, align 8, !tbaa !9
  %79 = add nsw i64 %78, 1
  store i64 %79, ptr %13, align 8, !tbaa !9
  br label %48

80:                                               ; preds = %52
  br label %81

81:                                               ; preds = %80
  %82 = load ptr, ptr %7, align 8
  %83 = load i32, ptr %82, align 4, !tbaa !17
  call void @__kmpc_for_static_fini(ptr @1, i32 %83)
  call void @llvm.lifetime.end.p0(i64 8, ptr %21) #18
  call void @llvm.lifetime.end.p0(i64 4, ptr %20) #18
  call void @llvm.lifetime.end.p0(i64 8, ptr %19) #18
  call void @llvm.lifetime.end.p0(i64 8, ptr %18) #18
  call void @llvm.lifetime.end.p0(i64 8, ptr %17) #18
  br label %84

84:                                               ; preds = %81, %6
  call void @llvm.lifetime.end.p0(i64 8, ptr %15) #18
  call void @llvm.lifetime.end.p0(i64 8, ptr %14) #18
  call void @llvm.lifetime.end.p0(i64 8, ptr %13) #18
  ret void

85:                                               ; preds = %53
  %86 = landingpad { ptr, i32 }
          catch ptr null
  %87 = extractvalue { ptr, i32 } %86, 0
  call void @__clang_call_terminate(ptr %87) #26
  unreachable
}