; Function Attrs: noinline norecurse nounwind uwtable
define internal void @_ZNK5faiss33IndexIVFAdditiveQuantizerFastScan14encode_vectorsElPKfPKlPhb.omp_outlined.16(ptr noalias noundef readonly captures(none) %0, ptr noalias readnone captures(none) %1, ptr noundef nonnull readonly align 8 captures(none) dereferenceable(8) %2, ptr noundef nonnull readonly align 8 captures(none) dereferenceable(24) %3, ptr noundef readonly captures(none) %4, ptr noundef nonnull readonly align 8 captures(none) dereferenceable(8) %5) #25 personality ptr @__gxx_personality_v0 {
  %7 = alloca i64, align 8
  %8 = alloca i64, align 8
  %9 = alloca i64, align 8
  %10 = alloca i32, align 4
  %11 = load i64, ptr %2, align 8, !tbaa !56
  %12 = icmp sgt i64 %11, 0
  br i1 %12, label %13, label %37

13:                                               ; preds = %6
  %14 = add nsw i64 %11, -1
  call void @llvm.lifetime.start.p0(i64 8, ptr nonnull %7) #21
  store i64 0, ptr %7, align 8, !tbaa !56
  call void @llvm.lifetime.start.p0(i64 8, ptr nonnull %8) #21
  store i64 %14, ptr %8, align 8, !tbaa !56
  call void @llvm.lifetime.start.p0(i64 8, ptr nonnull %9) #21
  store i64 1, ptr %9, align 8, !tbaa !56
  call void @llvm.lifetime.start.p0(i64 4, ptr nonnull %10) #21
  store i32 0, ptr %10, align 4, !tbaa !70
  %15 = load i32, ptr %0, align 4, !tbaa !70
  call void @__kmpc_for_static_init_8(ptr nonnull @1, i32 %15, i32 34, ptr nonnull %10, ptr nonnull %7, ptr nonnull %8, ptr nonnull %9, i64 1, i64 1)
  %16 = load i64, ptr %8, align 8, !tbaa !56
  %17 = call i64 @llvm.smin.i64(i64 %16, i64 %14)
  store i64 %17, ptr %8, align 8, !tbaa !56
  %18 = load i64, ptr %7, align 8, !tbaa !56
  %.not16 = icmp sgt i64 %18, %17
  br i1 %.not16, label %._crit_edge, label %.lr.ph

.lr.ph:                                           ; preds = %13
  %19 = getelementptr inbounds nuw i8, ptr %4, i64 8
  %20 = getelementptr inbounds nuw i8, ptr %4, i64 48
  br label %21

21:                                               ; preds = %.lr.ph, %34
  %.017 = phi i64 [ %18, %.lr.ph ], [ %35, %34 ]
  %22 = load ptr, ptr %3, align 8, !tbaa !65
  %23 = load i32, ptr %19, align 8, !tbaa !59
  %24 = sext i32 %23 to i64
  %25 = mul nsw i64 %.017, %24
  %26 = getelementptr inbounds float, ptr %22, i64 %25
  %27 = load ptr, ptr %20, align 8, !tbaa !97
  %28 = load ptr, ptr %5, align 8, !tbaa !58
  %29 = getelementptr inbounds i64, ptr %28, i64 %.017
  %30 = load i64, ptr %29, align 8, !tbaa !56
  %31 = load ptr, ptr %27, align 8, !tbaa !61
  %32 = getelementptr inbounds nuw i8, ptr %31, i64 80
  %33 = load ptr, ptr %32, align 8
  invoke void %33(ptr noundef nonnull align 8 dereferenceable(36) %27, i64 noundef %30, ptr noundef %26)
          to label %34 unwind label %38

34:                                               ; preds = %21
  %35 = add nsw i64 %.017, 1
  %36 = load i64, ptr %8, align 8, !tbaa !56
  %.not.not = icmp slt i64 %.017, %36
  br i1 %.not.not, label %21, label %._crit_edge

._crit_edge:                                      ; preds = %34, %13
  call void @__kmpc_for_static_fini(ptr nonnull @1, i32 %15)
  call void @llvm.lifetime.end.p0(i64 4, ptr nonnull %10) #21
  call void @llvm.lifetime.end.p0(i64 8, ptr nonnull %9) #21
  call void @llvm.lifetime.end.p0(i64 8, ptr nonnull %8) #21
  call void @llvm.lifetime.end.p0(i64 8, ptr nonnull %7) #21
  br label %37

37:                                               ; preds = %._crit_edge, %6
  ret void

38:                                               ; preds = %21
  %39 = landingpad { ptr, i32 }
          catch ptr null
  %40 = extractvalue { ptr, i32 } %39, 0
  call void @__clang_call_terminate(ptr %40) #32
  unreachable
}